target datalayout = "e-m:e-p270:32:32-p271:32:32-p272:64:64-i64:64-i128:128-f80:128-n8:16:32:64-S128"
target triple = "x86_64-pc-linux-gnu"

%struct.repository = type { ptr, ptr, ptr, ptr, ptr, %struct.strmap, %struct.strmap, %struct.repo_path_cache, ptr, ptr, ptr, ptr, %struct.repo_settings, ptr, ptr, ptr, ptr, ptr, ptr, i32, i32, i32, ptr, ptr, i32, i32, i8 }
%struct.strmap = type { %struct.hashmap, ptr, i8 }
%struct.hashmap = type { ptr, ptr, ptr, i32, i32, i32, i32, i8 }
%struct.repo_path_cache = type { ptr, ptr, ptr, ptr, ptr, ptr, ptr }
%struct.repo_settings = type { i32, i32, i32, i32, i32, i32, i32, i32, i32, i32, i32, i32, ptr, i32, i32, i32, i32, i32, i32, i32, i64, i64, i64 }
%struct.parsed_object_pool = type { ptr, ptr, i32, i32, ptr, ptr, ptr, ptr, ptr, ptr, i32, i32, i32, ptr, ptr, i32, i32, ptr }
%struct.shallow_lock = type { %struct.lock_file }
%struct.lock_file = type { ptr }

; Function Attrs: nounwind uwtable
define internal void @reset_repository_shallow(ptr noundef %0) #0 {
  %2 = alloca ptr, align 8
  store ptr %0, ptr %2, align 8, !tbaa !4
  %3 = load ptr, ptr %2, align 8, !tbaa !4
  %4 = getelementptr inbounds nuw %struct.repository, ptr %3, i32 0, i32 3
  %5 = load ptr, ptr %4, align 8, !tbaa !13
  %6 = getelementptr inbounds nuw %struct.parsed_object_pool, ptr %5, i32 0, i32 12
  store i32 -1, ptr %6, align 8, !tbaa !32
  %7 = load ptr, ptr %2, align 8, !tbaa !4
  %8 = getelementptr inbounds nuw %struct.repository, ptr %7, i32 0, i32 3
  %9 = load ptr, ptr %8, align 8, !tbaa !13
  %10 = getelementptr inbounds nuw %struct.parsed_object_pool, ptr %9, i32 0, i32 13
  %11 = load ptr, ptr %10, align 8, !tbaa !60
  call void @stat_validity_clear(ptr noundef %11)
  %12 = load ptr, ptr %2, align 8, !tbaa !4
  %13 = getelementptr inbounds nuw %struct.repository, ptr %12, i32 0, i32 3
  %14 = load ptr, ptr %13, align 8, !tbaa !13
  call void @parsed_object_pool_reset_commit_grafts(ptr noundef %14)
  ret void
}

; Function Attrs: inlinehint nounwind uwtable
define internal i32 @rollback_lock_file(ptr noundef %0) #3 {
  %2 = alloca ptr, align 8
  store ptr %0, ptr %2, align 8, !tbaa !65
  %3 = load ptr, ptr %2, align 8, !tbaa !65
  %4 = getelementptr inbounds nuw %struct.lock_file, ptr %3, i32 0, i32 0
  %5 = call i32 @delete_tempfile(ptr noundef %4)
  ret i32 %5
}

; Function Attrs: nounwind uwtable
define dso_local void @rollback_shallow_file(ptr noundef %0, ptr noundef %1) #0 {
  %3 = alloca ptr, align 8
  %4 = alloca ptr, align 8
  store ptr %0, ptr %3, align 8, !tbaa !4
  store ptr %1, ptr %4, align 8, !tbaa !63
  %5 = load ptr, ptr %4, align 8, !tbaa !63
  %6 = getelementptr inbounds nuw %struct.shallow_lock, ptr %5, i32 0, i32 0
  %7 = call i32 @rollback_lock_file(ptr noundef %6)
  %8 = load ptr, ptr %3, align 8, !tbaa !4
  call void @reset_repository_shallow(ptr noundef %8)
  ret void
}